target datalayout = "e-m:e-p270:32:32-p271:32:32-p272:64:64-i64:64-i128:128-f80:128-n8:16:32:64-S128"
target triple = "x86_64-pc-linux-gnu"

%struct.HEVCContext = type { ptr, ptr, ptr, i32, [2 x %struct.HEVCLayerContext], i32, i32, i32, i8, ptr, %struct.HEVCParamSets, %struct.HEVCSEI, ptr, [7 x %struct.RefPicList], ptr, ptr, %struct.SliceHeader, i32, i32, ptr, ptr, i32, i32, i32, i32, i32, i32, i32, %struct.HEVCPredContext, %struct.HEVCDSPContext, %struct.VideoDSPContext, %struct.BswapDSPContext, %struct.H274FilmGrainDatabase, ptr, i32, %struct.HEVCCABACState, ptr, i32, i32, ptr, %struct.H2645Packet, i32, i32, i32, i32, ptr, i32, ptr, i32, ptr, i32, i32, i32, i32, i64, ptr, %struct.DOVIContext }
%struct.HEVCLayerContext = type { [32 x %struct.HEVCFrame], ptr, ptr, i32, i32, ptr, ptr, ptr, ptr, ptr, ptr, ptr, ptr, ptr, ptr, ptr, ptr, [3 x ptr], [3 x ptr], ptr, ptr }
%struct.HEVCFrame = type { %union.anon, ptr, i32, ptr, ptr, ptr, i32, i32, ptr, ptr, i32, ptr, i32, i8 }
%union.anon = type { %struct.ProgressFrame }
%struct.ProgressFrame = type { ptr, ptr }
%struct.HEVCParamSets = type { [16 x ptr], [16 x ptr], [64 x ptr] }
%struct.HEVCSEI = type { %struct.H2645SEI, %struct.HEVCSEIPictureHash, %struct.HEVCSEIPictureTiming, i32, %struct.HEVCSEITimeCode, %struct.HEVCSEITDRDI, %struct.HEVCSEIRecoveryPoint }
%struct.H2645SEI = type { %struct.H2645SEIA53Caption, %struct.H2645SEIAFD, %struct.HEVCSEIDynamicHDRPlus, %struct.HEVCSEIDynamicHDRVivid, %struct.HEVCSEILCEVC, %struct.H2645SEIUnregistered, %struct.H2645SEIFramePacking, %struct.H2645SEIDisplayOrientation, %struct.H2645SEIAlternativeTransfer, %struct.H2645SEIAmbientViewingEnvironment, %struct.H2645SEIMasteringDisplay, %struct.H2645SEIContentLight, %struct.AVFilmGrainAFGS1Params, ptr }
%struct.H2645SEIA53Caption = type { ptr }
%struct.H2645SEIAFD = type { i32, i8 }
%struct.HEVCSEIDynamicHDRPlus = type { ptr }
%struct.HEVCSEIDynamicHDRVivid = type { ptr }
%struct.HEVCSEILCEVC = type { ptr }
%struct.H2645SEIUnregistered = type { ptr, i32, i32 }
%struct.H2645SEIFramePacking = type { i32, i32, i32, i32, i32, i32, i32, i32 }
%struct.H2645SEIDisplayOrientation = type { i32, i32, i32, i32 }
%struct.H2645SEIAlternativeTransfer = type { i32, i32 }
%struct.H2645SEIAmbientViewingEnvironment = type { i32, i32, i16, i16 }
%struct.H2645SEIMasteringDisplay = type { i32, [3 x [2 x i16]], [2 x i16], i32, i32 }
%struct.H2645SEIContentLight = type { i32, i16, i16 }
%struct.AVFilmGrainAFGS1Params = type { i32, [8 x ptr] }
%struct.HEVCSEIPictureHash = type { [3 x [16 x i8]], i8 }
%struct.HEVCSEIPictureTiming = type { i32 }
%struct.HEVCSEITimeCode = type { i32, i8, [3 x i8], [3 x i8], [3 x i8], [3 x i8], [3 x i8], [3 x i8], [3 x i16], [3 x i8], [3 x i8], [3 x i8], [3 x i8], [3 x i8], [3 x i8], [3 x i8], [3 x i32] }
%struct.HEVCSEITDRDI = type { i8, i8, i8, i8, [32 x i16], [32 x i16], [32 x i8], [32 x i8], [32 x i8], [32 x i8], [32 x i8], [32 x i16], i8 }
%struct.HEVCSEIRecoveryPoint = type { i16, i8, i8, i8 }
%struct.RefPicList = type { [16 x ptr], [16 x i32], [16 x i32], i32 }
%struct.SliceHeader = type { i32, i32, i32, i32, i32, i32, i8, i8, i8, i8, i8, i32, i32, %struct.ShortTermRPS, ptr, i32, %struct.LongTermRPS, [2 x [32 x i32]], [2 x i8], i8, i8, [2 x i32], [3 x i8], i8, i8, i8, i8, i8, i32, i32, i32, i32, i32, i32, i32, i8, i32, i32, i8, i8, ptr, ptr, ptr, i32, i8, i8, i16, [16 x i16], [16 x [2 x i16]], [16 x [2 x i16]], [16 x i16], [16 x i16], [16 x [2 x i16]], [16 x i16], [16 x [2 x i16]], i32, i32 }
%struct.ShortTermRPS = type { [32 x i32], i32, i8, i8, i8, i8, i16, i8 }
%struct.LongTermRPS = type { [32 x i32], [32 x i8], [32 x i8], i8 }
%struct.HEVCPredContext = type { [4 x ptr], [4 x ptr], ptr, [4 x ptr] }
%struct.HEVCDSPContext = type { ptr, [4 x ptr], ptr, ptr, ptr, [4 x ptr], [4 x ptr], [5 x ptr], [5 x ptr], [2 x ptr], [10 x [2 x [2 x ptr]]], [10 x [2 x [2 x ptr]]], [10 x [2 x [2 x ptr]]], [10 x [2 x [2 x ptr]]], [10 x [2 x [2 x ptr]]], [10 x [2 x [2 x ptr]]], [10 x [2 x [2 x ptr]]], [10 x [2 x [2 x ptr]]], [10 x [2 x [2 x ptr]]], [10 x [2 x [2 x ptr]]], ptr, ptr, ptr, ptr, ptr, ptr, ptr, ptr }
%struct.VideoDSPContext = type { ptr, ptr }
%struct.BswapDSPContext = type { ptr, ptr }
%struct.H274FilmGrainDatabase = type { [13 x [13 x [64 x [64 x i8]]]], [13 x i16], [64 x [64 x i16]] }
%struct.HEVCCABACState = type { [199 x i8], [4 x i8] }
%struct.H2645Packet = type { ptr, %struct.H2645RBSP, i32, i32, i32 }
%struct.H2645RBSP = type { ptr, ptr, i32, i32 }
%struct.DOVIContext = type { ptr, i32, %struct.AVDOVIDecoderConfigurationRecord, %struct.AVDOVIRpuDataHeader, ptr, ptr, ptr, ptr, [16 x ptr], ptr, i32 }
%struct.AVDOVIDecoderConfigurationRecord = type { i8, i8, i8, i8, i8, i8, i8, i8, i8 }
%struct.AVDOVIRpuDataHeader = type { i8, i16, i8, i8, i8, i8, i8, i8, i8, i8, i8, i8, i8, i8, i8, i8, i8 }
%struct.HEVCVPS = type { i32, i8, i32, i32, %struct.PTL, i32, [7 x i32], [7 x i32], [7 x i32], i32, i32, i8, i32, i32, i8, i32, i32, ptr, i32, i16, [63 x i8], [2 x i8], i8, i8, i8, i8, %struct.anon.0, [2 x i16], i8, [2 x i64], [2 x i8], i8, %struct.RepFormat, ptr, i32 }
%struct.PTL = type { %struct.PTLCommon, [7 x %struct.PTLCommon], [7 x i8], [7 x i8] }
%struct.PTLCommon = type { i8, i8, i8, [32 x i8], i8, i8, i8, i8, i8, i8, i8, i8, i8, i8, i8, i8, i8, i8, i8, i8 }
%struct.anon.0 = type { i32, i32, i32 }
%struct.RepFormat = type { i16, i16, i8, i8, i8, i8, i16, i16, i16, i16 }

@.str = private unnamed_addr constant [35 x i8] c"Multi layer video, %s alpha video\0A\00", align 1
@.str.1 = private unnamed_addr constant [3 x i8] c"is\00", align 1
@.str.2 = private unnamed_addr constant [4 x i8] c"not\00", align 1

; Function Attrs: nounwind uwtable
define i32 @ff_hevc_is_alpha_video(ptr noundef %0) #0 {
  %2 = alloca i32, align 4
  %3 = alloca ptr, align 8
  %4 = alloca ptr, align 8
  %5 = alloca i32, align 4
  %6 = alloca i32, align 4
  store ptr %0, ptr %3, align 8, !tbaa !4
  call void @llvm.lifetime.start.p0(i64 8, ptr %4) #12
  %7 = load ptr, ptr %3, align 8, !tbaa !4
  %8 = getelementptr inbounds nuw %struct.HEVCContext, ptr %7, i32 0, i32 14
  %9 = load ptr, ptr %8, align 8, !tbaa !9
  store ptr %9, ptr %4, align 8, !tbaa !69
  call void @llvm.lifetime.start.p0(i64 4, ptr %5) #12
  store i32 0, ptr %5, align 4, !tbaa !70
  %10 = load ptr, ptr %4, align 8, !tbaa !69
  %11 = getelementptr inbounds nuw %struct.HEVCVPS, ptr %10, i32 0, i32 18
  %12 = load i32, ptr %11, align 8, !tbaa !71
  %13 = icmp ne i32 %12, 2
  br i1 %13, label %20, label %14

14:                                               ; preds = %1
  %15 = load ptr, ptr %4, align 8, !tbaa !69
  %16 = getelementptr inbounds nuw %struct.HEVCVPS, ptr %15, i32 0, i32 21
  %17 = getelementptr inbounds [2 x i8], ptr %16, i64 0, i64 1
  %18 = load i8, ptr %17, align 1, !tbaa !78
  %19 = icmp ne i8 %18, 0
  br i1 %19, label %21, label %20

20:                                               ; preds = %14, %1
  store i32 0, ptr %2, align 4
  store i32 1, ptr %6, align 4
  br label %36

21:                                               ; preds = %14
  %22 = load ptr, ptr %3, align 8, !tbaa !4
  %23 = getelementptr inbounds nuw %struct.HEVCContext, ptr %22, i32 0, i32 14
  %24 = load ptr, ptr %23, align 8, !tbaa !9
  %25 = getelementptr inbounds nuw %struct.HEVCVPS, ptr %24, i32 0, i32 19
  %26 = load i16, ptr %25, align 4, !tbaa !79
  %27 = zext i16 %26 to i32
  %28 = and i32 %27, 4096
  store i32 %28, ptr %5, align 4, !tbaa !70
  %29 = load ptr, ptr %3, align 8, !tbaa !4
  %30 = getelementptr inbounds nuw %struct.HEVCContext, ptr %29, i32 0, i32 1
  %31 = load ptr, ptr %30, align 8, !tbaa !80
  %32 = load i32, ptr %5, align 4, !tbaa !70
  %33 = icmp ne i32 %32, 0
  %34 = select i1 %33, ptr @.str.1, ptr @.str.2
  call void (ptr, i32, ptr, ...) @av_log(ptr noundef %31, i32 noundef 48, ptr noundef @.str, ptr noundef %34)
  %35 = load i32, ptr %5, align 4, !tbaa !70
  store i32 %35, ptr %2, align 4
  store i32 1, ptr %6, align 4
  br label %36

36:                                               ; preds = %21, %20
  call void @llvm.lifetime.end.p0(i64 4, ptr %5) #12
  call void @llvm.lifetime.end.p0(i64 8, ptr %4) #12
  %37 = load i32, ptr %2, align 4
  ret i32 %37
}