; Function Attrs: nounwind uwtable
define range(i32 0, 4097) i32 @ff_hevc_is_alpha_video(ptr noundef readonly captures(none) %0) local_unnamed_addr #0 {
  %2 = getelementptr inbounds nuw i8, ptr %0, i64 10432
  %3 = load ptr, ptr %2, align 8, !tbaa !4
  %4 = getelementptr inbounds nuw i8, ptr %3, i64 568
  %5 = load i32, ptr %4, align 8, !tbaa !67
  %.not = icmp eq i32 %5, 2
  br i1 %.not, label %6, label %17

6:                                                ; preds = %1
  %7 = getelementptr inbounds nuw i8, ptr %3, i64 638
  %8 = load i8, ptr %7, align 1, !tbaa !74
  %.not7 = icmp eq i8 %8, 0
  br i1 %.not7, label %17, label %9

9:                                                ; preds = %6
  %10 = getelementptr inbounds nuw i8, ptr %3, i64 572
  %11 = load i16, ptr %10, align 4, !tbaa !75
  %12 = and i16 %11, 4096
  %13 = zext nneg i16 %12 to i32
  %14 = getelementptr inbounds nuw i8, ptr %0, i64 8
  %15 = load ptr, ptr %14, align 8, !tbaa !76
  %.not8 = icmp eq i16 %12, 0
  %16 = select i1 %.not8, ptr @.str.2, ptr @.str.1
  tail call void (ptr, i32, ptr, ...) @av_log(ptr noundef %15, i32 noundef 48, ptr noundef nonnull @.str, ptr noundef nonnull %16) #15
  br label %17

17:                                               ; preds = %1, %6, %9
  %.0 = phi i32 [ %13, %9 ], [ 0, %6 ], [ 0, %1 ]
  ret i32 %.0
}